target datalayout = "e-m:e-p270:32:32-p271:32:32-p272:64:64-i64:64-i128:128-f80:128-n8:16:32:64-S128"
target triple = "x86_64-pc-linux-gnu"

%struct.AVMetadataConv = type { ptr, ptr }
%struct.AVFormatContext = type { ptr, ptr, ptr, ptr, ptr, i32, i32, ptr, i32, ptr, i32, ptr, ptr, i64, i64, i64, i32, i32, i32, i64, i64, ptr, i32, i32, ptr, i32, i32, i32, i32, ptr, i64, i32, i32, %struct.AVIOInterruptCB, i32, i32, i32, i32, i64, i32, i32, i32, i32, i32, i32, i32, i32, i32, i32, i32, i32, i64, i32, i32, i32, i32, i32, ptr, ptr, ptr, ptr, i32, ptr, ptr, ptr, ptr, i32, ptr, ptr, i64, ptr, ptr, ptr, i64 }
%struct.AVIOInterruptCB = type { ptr, ptr }
%struct.AVDictionaryEntry = type { ptr, ptr }

@ff_riff_info_conv = external constant [0 x %struct.AVMetadataConv], align 8
@.str.6 = private unnamed_addr constant [5 x i8] c"LIST\00", align 1
@.str.7 = private unnamed_addr constant [5 x i8] c"INFO\00", align 1

; Function Attrs: alwaysinline nounwind uwtable
define internal i64 @avio_tell(ptr noundef %0) #1 {
  %2 = alloca ptr, align 8
  store ptr %0, ptr %2, align 8, !tbaa !4
  %3 = load ptr, ptr %2, align 8, !tbaa !4
  %4 = call i64 @avio_seek(ptr noundef %3, i64 noundef 0, i32 noundef 1)
  ret i64 %4
}

; Function Attrs: nounwind uwtable
define void @ff_riff_write_info_tag(ptr noundef %0, ptr noundef %1, ptr noundef %2) #0 {
  %4 = alloca ptr, align 8
  %5 = alloca ptr, align 8
  %6 = alloca ptr, align 8
  %7 = alloca i64, align 8
  store ptr %0, ptr %4, align 8, !tbaa !4
  store ptr %1, ptr %5, align 8, !tbaa !9
  store ptr %2, ptr %6, align 8, !tbaa !9
  call void @llvm.lifetime.start.p0(i64 8, ptr %7) #7
  %8 = load ptr, ptr %6, align 8, !tbaa !9
  %9 = call i64 @strlen(ptr noundef %8) #10
  store i64 %9, ptr %7, align 8, !tbaa !12
  %10 = load i64, ptr %7, align 8, !tbaa !12
  %11 = icmp ugt i64 %10, 0
  br i1 %11, label %12, label %32

12:                                               ; preds = %3
  %13 = load i64, ptr %7, align 8, !tbaa !12
  %14 = icmp ult i64 %13, 4294967295
  br i1 %14, label %15, label %32

15:                                               ; preds = %12
  %16 = load i64, ptr %7, align 8, !tbaa !12
  %17 = add i64 %16, 1
  store i64 %17, ptr %7, align 8, !tbaa !12
  %18 = load ptr, ptr %4, align 8, !tbaa !4
  %19 = load ptr, ptr %5, align 8, !tbaa !9
  call void @ffio_wfourcc(ptr noundef %18, ptr noundef %19)
  %20 = load ptr, ptr %4, align 8, !tbaa !4
  %21 = load i64, ptr %7, align 8, !tbaa !12
  %22 = trunc i64 %21 to i32
  call void @avio_wl32(ptr noundef %20, i32 noundef %22)
  %23 = load ptr, ptr %4, align 8, !tbaa !4
  %24 = load ptr, ptr %6, align 8, !tbaa !9
  %25 = call i32 @avio_put_str(ptr noundef %23, ptr noundef %24)
  %26 = load i64, ptr %7, align 8, !tbaa !12
  %27 = and i64 %26, 1
  %28 = icmp ne i64 %27, 0
  br i1 %28, label %29, label %31

29:                                               ; preds = %15
  %30 = load ptr, ptr %4, align 8, !tbaa !4
  call void @avio_w8(ptr noundef %30, i32 noundef 0)
  br label %31

31:                                               ; preds = %29, %15
  br label %32

32:                                               ; preds = %31, %12, %3
  call void @llvm.lifetime.end.p0(i64 8, ptr %7) #7
  ret void
}

; Function Attrs: alwaysinline nounwind uwtable
define internal void @ffio_wfourcc(ptr noundef %0, ptr noundef %1) #1 {
  %3 = alloca ptr, align 8
  %4 = alloca ptr, align 8
  store ptr %0, ptr %3, align 8, !tbaa !4
  store ptr %1, ptr %4, align 8, !tbaa !9
  %5 = load ptr, ptr %3, align 8, !tbaa !4
  %6 = load ptr, ptr %4, align 8, !tbaa !9
  %7 = getelementptr inbounds i8, ptr %6, i64 0
  %8 = load i8, ptr %7, align 1, !tbaa !11
  %9 = zext i8 %8 to i32
  %10 = load ptr, ptr %4, align 8, !tbaa !9
  %11 = getelementptr inbounds i8, ptr %10, i64 1
  %12 = load i8, ptr %11, align 1, !tbaa !11
  %13 = zext i8 %12 to i32
  %14 = shl i32 %13, 8
  %15 = or i32 %9, %14
  %16 = load ptr, ptr %4, align 8, !tbaa !9
  %17 = getelementptr inbounds i8, ptr %16, i64 2
  %18 = load i8, ptr %17, align 1, !tbaa !11
  %19 = zext i8 %18 to i32
  %20 = shl i32 %19, 16
  %21 = or i32 %15, %20
  %22 = load ptr, ptr %4, align 8, !tbaa !9
  %23 = getelementptr inbounds i8, ptr %22, i64 3
  %24 = load i8, ptr %23, align 1, !tbaa !11
  %25 = zext i8 %24 to i32
  %26 = shl i32 %25, 24
  %27 = or i32 %21, %26
  call void @avio_wl32(ptr noundef %5, i32 noundef %27)
  ret void
}

; Function Attrs: nounwind uwtable
define i64 @ff_start_tag(ptr noundef %0, ptr noundef %1) #0 {
  %3 = alloca ptr, align 8
  %4 = alloca ptr, align 8
  store ptr %0, ptr %3, align 8, !tbaa !4
  store ptr %1, ptr %4, align 8, !tbaa !9
  %5 = load ptr, ptr %3, align 8, !tbaa !4
  %6 = load ptr, ptr %4, align 8, !tbaa !9
  call void @ffio_wfourcc(ptr noundef %5, ptr noundef %6)
  %7 = load ptr, ptr %3, align 8, !tbaa !4
  call void @avio_wl32(ptr noundef %7, i32 noundef -1)
  %8 = load ptr, ptr %3, align 8, !tbaa !4
  %9 = call i64 @avio_tell(ptr noundef %8)
  ret i64 %9
}

; Function Attrs: nounwind uwtable
define internal i32 @riff_has_valid_tags(ptr noundef %0) #0 {
  %2 = alloca i32, align 4
  %3 = alloca ptr, align 8
  %4 = alloca i32, align 4
  %5 = alloca i32, align 4
  store ptr %0, ptr %3, align 8, !tbaa !14
  call void @llvm.lifetime.start.p0(i64 4, ptr %4) #7
  store i32 0, ptr %4, align 4, !tbaa !18
  br label %6

6:                                                ; preds = %25, %1
  %7 = load i32, ptr %4, align 4, !tbaa !18
  %8 = sext i32 %7 to i64
  %9 = getelementptr inbounds [37 x [5 x i8]], ptr @riff_tags, i64 0, i64 %8
  %10 = getelementptr inbounds [5 x i8], ptr %9, i64 0, i64 0
  %11 = load i8, ptr %10, align 1, !tbaa !11
  %12 = icmp ne i8 %11, 0
  br i1 %12, label %13, label %28

13:                                               ; preds = %6
  %14 = load ptr, ptr %3, align 8, !tbaa !14
  %15 = getelementptr inbounds nuw %struct.AVFormatContext, ptr %14, i32 0, i32 29
  %16 = load ptr, ptr %15, align 8, !tbaa !77
  %17 = load i32, ptr %4, align 4, !tbaa !18
  %18 = sext i32 %17 to i64
  %19 = getelementptr inbounds [37 x [5 x i8]], ptr @riff_tags, i64 0, i64 %18
  %20 = getelementptr inbounds [5 x i8], ptr %19, i64 0, i64 0
  %21 = call ptr @av_dict_get(ptr noundef %16, ptr noundef %20, ptr noundef null, i32 noundef 1)
  %22 = icmp ne ptr %21, null
  br i1 %22, label %23, label %24

23:                                               ; preds = %13
  store i32 1, ptr %2, align 4
  store i32 1, ptr %5, align 4
  br label %29

24:                                               ; preds = %13
  br label %25

25:                                               ; preds = %24
  %26 = load i32, ptr %4, align 4, !tbaa !18
  %27 = add nsw i32 %26, 1
  store i32 %27, ptr %4, align 4, !tbaa !18
  br label %6, !llvm.loop !82

28:                                               ; preds = %6
  store i32 0, ptr %2, align 4
  store i32 1, ptr %5, align 4
  br label %29

29:                                               ; preds = %28, %23
  call void @llvm.lifetime.end.p0(i64 4, ptr %4) #7
  %30 = load i32, ptr %2, align 4
  ret i32 %30
}

; Function Attrs: nounwind uwtable
define void @ff_riff_write_info(ptr noundef %0) #0 {
  %2 = alloca ptr, align 8
  %3 = alloca ptr, align 8
  %4 = alloca i32, align 4
  %5 = alloca i64, align 8
  %6 = alloca ptr, align 8
  %7 = alloca i32, align 4
  store ptr %0, ptr %2, align 8, !tbaa !14
  call void @llvm.lifetime.start.p0(i64 8, ptr %3) #7
  %8 = load ptr, ptr %2, align 8, !tbaa !14
  %9 = getelementptr inbounds nuw %struct.AVFormatContext, ptr %8, i32 0, i32 4
  %10 = load ptr, ptr %9, align 8, !tbaa !74
  store ptr %10, ptr %3, align 8, !tbaa !4
  call void @llvm.lifetime.start.p0(i64 4, ptr %4) #7
  call void @llvm.lifetime.start.p0(i64 8, ptr %5) #7
  call void @llvm.lifetime.start.p0(i64 8, ptr %6) #7
  store ptr null, ptr %6, align 8, !tbaa !75
  %11 = load ptr, ptr %2, align 8, !tbaa !14
  %12 = getelementptr inbounds nuw %struct.AVFormatContext, ptr %11, i32 0, i32 29
  call void @ff_metadata_conv(ptr noundef %12, ptr noundef @ff_riff_info_conv, ptr noundef null)
  %13 = load ptr, ptr %2, align 8, !tbaa !14
  %14 = call i32 @riff_has_valid_tags(ptr noundef %13)
  %15 = icmp ne i32 %14, 0
  br i1 %15, label %17, label %16

16:                                               ; preds = %1
  store i32 1, ptr %7, align 4
  br label %55

17:                                               ; preds = %1
  %18 = load ptr, ptr %3, align 8, !tbaa !4
  %19 = call i64 @ff_start_tag(ptr noundef %18, ptr noundef @.str.6)
  store i64 %19, ptr %5, align 8, !tbaa !12
  %20 = load ptr, ptr %3, align 8, !tbaa !4
  call void @ffio_wfourcc(ptr noundef %20, ptr noundef @.str.7)
  store i32 0, ptr %4, align 4, !tbaa !18
  br label %21

21:                                               ; preds = %49, %17
  %22 = load i32, ptr %4, align 4, !tbaa !18
  %23 = sext i32 %22 to i64
  %24 = getelementptr inbounds [37 x [5 x i8]], ptr @riff_tags, i64 0, i64 %23
  %25 = getelementptr inbounds [5 x i8], ptr %24, i64 0, i64 0
  %26 = load i8, ptr %25, align 1, !tbaa !11
  %27 = icmp ne i8 %26, 0
  br i1 %27, label %28, label %52

28:                                               ; preds = %21
  %29 = load ptr, ptr %2, align 8, !tbaa !14
  %30 = getelementptr inbounds nuw %struct.AVFormatContext, ptr %29, i32 0, i32 29
  %31 = load ptr, ptr %30, align 8, !tbaa !77
  %32 = load i32, ptr %4, align 4, !tbaa !18
  %33 = sext i32 %32 to i64
  %34 = getelementptr inbounds [37 x [5 x i8]], ptr @riff_tags, i64 0, i64 %33
  %35 = getelementptr inbounds [5 x i8], ptr %34, i64 0, i64 0
  %36 = call ptr @av_dict_get(ptr noundef %31, ptr noundef %35, ptr noundef null, i32 noundef 1)
  store ptr %36, ptr %6, align 8, !tbaa !75
  %37 = icmp ne ptr %36, null
  br i1 %37, label %38, label %48

38:                                               ; preds = %28
  %39 = load ptr, ptr %2, align 8, !tbaa !14
  %40 = getelementptr inbounds nuw %struct.AVFormatContext, ptr %39, i32 0, i32 4
  %41 = load ptr, ptr %40, align 8, !tbaa !74
  %42 = load ptr, ptr %6, align 8, !tbaa !75
  %43 = getelementptr inbounds nuw %struct.AVDictionaryEntry, ptr %42, i32 0, i32 0
  %44 = load ptr, ptr %43, align 8, !tbaa !78
  %45 = load ptr, ptr %6, align 8, !tbaa !75
  %46 = getelementptr inbounds nuw %struct.AVDictionaryEntry, ptr %45, i32 0, i32 1
  %47 = load ptr, ptr %46, align 8, !tbaa !80
  call void @ff_riff_write_info_tag(ptr noundef %41, ptr noundef %44, ptr noundef %47)
  br label %48

48:                                               ; preds = %38, %28
  br label %49

49:                                               ; preds = %48
  %50 = load i32, ptr %4, align 4, !tbaa !18
  %51 = add nsw i32 %50, 1
  store i32 %51, ptr %4, align 4, !tbaa !18
  br label %21, !llvm.loop !81

52:                                               ; preds = %21
  %53 = load ptr, ptr %3, align 8, !tbaa !4
  %54 = load i64, ptr %5, align 8, !tbaa !12
  call void @ff_end_tag(ptr noundef %53, i64 noundef %54)
  store i32 0, ptr %7, align 4
  br label %55

55:                                               ; preds = %52, %16
  call void @llvm.lifetime.end.p0(i64 8, ptr %6) #7
  call void @llvm.lifetime.end.p0(i64 8, ptr %5) #7
  call void @llvm.lifetime.end.p0(i64 4, ptr %4) #7
  call void @llvm.lifetime.end.p0(i64 8, ptr %3) #7
  %56 = load i32, ptr %7, align 4
  switch i32 %56, label %58 [
    i32 0, label %57
    i32 1, label %57
  ]

57:                                               ; preds = %55, %55
  ret void

58:                                               ; preds = %55
  unreachable
}